target datalayout = "e-m:e-p270:32:32-p271:32:32-p272:64:64-i64:64-i128:128-f80:128-n8:16:32:64-S128"
target triple = "x86_64-pc-linux-gnu"

%struct.pull_varnos_context = type { ptr, ptr, i32 }
%struct.Var = type { %struct.Expr, i32, i16, i32, i32, i32, ptr, i32, i32, i32, i16, i32 }
%struct.Expr = type { i32 }
%struct.PlaceHolderVar = type { %struct.Expr, ptr, ptr, ptr, i32, i32 }
%struct.PlannerInfo = type { i32, ptr, ptr, i32, ptr, ptr, ptr, ptr, i32, ptr, ptr, ptr, ptr, ptr, ptr, ptr, ptr, i32, ptr, ptr, ptr, ptr, ptr, i8, ptr, ptr, ptr, ptr, ptr, i32, ptr, ptr, ptr, ptr, ptr, ptr, ptr, i32, ptr, ptr, ptr, i32, ptr, ptr, ptr, ptr, ptr, ptr, [8 x ptr], [8 x ptr], ptr, ptr, ptr, ptr, ptr, ptr, ptr, double, double, double, i32, i8, i8, i8, i8, i8, i8, i8, i32, ptr, ptr, i32, i8, i8, i32, ptr, ptr, ptr, ptr, ptr, ptr, i8, ptr }

@.str.1 = private unnamed_addr constant [6 x i8] c"var.c\00", align 1
@.str.9 = private unnamed_addr constant [34 x i8] c"unsupported join alias expression\00", align 1
@__func__.add_nullingrels_if_needed = private unnamed_addr constant [26 x i8] c"add_nullingrels_if_needed\00", align 1

; Function Attrs: nounwind uwtable
define dso_local ptr @pull_varnos_of_level(ptr noundef %0, ptr noundef %1, i32 noundef %2) #0 {
  %4 = alloca ptr, align 8
  %5 = alloca ptr, align 8
  %6 = alloca i32, align 4
  %7 = alloca %struct.pull_varnos_context, align 8
  store ptr %0, ptr %4, align 8
  store ptr %1, ptr %5, align 8
  store i32 %2, ptr %6, align 4
  call void @llvm.lifetime.start.p0(i64 24, ptr %7) #6
  %8 = getelementptr inbounds nuw %struct.pull_varnos_context, ptr %7, i32 0, i32 0
  store ptr null, ptr %8, align 8
  %9 = load ptr, ptr %4, align 8
  %10 = getelementptr inbounds nuw %struct.pull_varnos_context, ptr %7, i32 0, i32 1
  store ptr %9, ptr %10, align 8
  %11 = load i32, ptr %6, align 4
  %12 = getelementptr inbounds nuw %struct.pull_varnos_context, ptr %7, i32 0, i32 2
  store i32 %11, ptr %12, align 8
  %13 = load ptr, ptr %5, align 8
  %14 = call zeroext i1 @query_or_expression_tree_walker_impl(ptr noundef %13, ptr noundef @pull_varnos_walker, ptr noundef %7, i32 noundef 0)
  %15 = getelementptr inbounds nuw %struct.pull_varnos_context, ptr %7, i32 0, i32 0
  %16 = load ptr, ptr %15, align 8
  call void @llvm.lifetime.end.p0(i64 24, ptr %7) #6
  ret ptr %16
}

; Function Attrs: nounwind uwtable
define internal ptr @add_nullingrels_if_needed(ptr noundef %0, ptr noundef %1, ptr noundef %2) #0 {
  %4 = alloca ptr, align 8
  %5 = alloca ptr, align 8
  %6 = alloca ptr, align 8
  %7 = alloca ptr, align 8
  %8 = alloca ptr, align 8
  %9 = alloca i32, align 4
  %10 = alloca ptr, align 8
  store ptr %0, ptr %5, align 8
  store ptr %1, ptr %6, align 8
  store ptr %2, ptr %7, align 8
  %11 = load ptr, ptr %7, align 8
  %12 = getelementptr inbounds nuw %struct.Var, ptr %11, i32 0, i32 6
  %13 = load ptr, ptr %12, align 8
  %14 = icmp eq ptr %13, null
  br i1 %14, label %15, label %17

15:                                               ; preds = %3
  %16 = load ptr, ptr %6, align 8
  store ptr %16, ptr %4, align 8
  br label %92

17:                                               ; preds = %3
  %18 = load ptr, ptr %6, align 8
  %19 = load ptr, ptr %7, align 8
  %20 = call zeroext i1 @is_standard_join_alias_expression(ptr noundef %18, ptr noundef %19)
  br i1 %20, label %21, label %24

21:                                               ; preds = %17
  %22 = load ptr, ptr %6, align 8
  %23 = load ptr, ptr %7, align 8
  call void @adjust_standard_join_alias_expression(ptr noundef %22, ptr noundef %23)
  br label %90

24:                                               ; preds = %17
  %25 = load ptr, ptr %5, align 8
  %26 = icmp ne ptr %25, null
  br i1 %26, label %27, label %79

27:                                               ; preds = %24
  call void @llvm.lifetime.start.p0(i64 8, ptr %8) #6
  call void @llvm.lifetime.start.p0(i64 4, ptr %9) #6
  %28 = load ptr, ptr %7, align 8
  %29 = getelementptr inbounds nuw %struct.Var, ptr %28, i32 0, i32 7
  %30 = load i32, ptr %29, align 8
  store i32 %30, ptr %9, align 4
  call void @llvm.lifetime.start.p0(i64 8, ptr %10) #6
  %31 = load ptr, ptr %5, align 8
  %32 = load ptr, ptr %6, align 8
  %33 = load i32, ptr %9, align 4
  %34 = call ptr @pull_varnos_of_level(ptr noundef %31, ptr noundef %32, i32 noundef %33)
  store ptr %34, ptr %10, align 8
  %35 = load ptr, ptr %10, align 8
  %36 = icmp eq ptr %35, null
  br i1 %36, label %37, label %64

37:                                               ; preds = %27
  %38 = load i32, ptr %9, align 4
  %39 = icmp ne i32 %38, 0
  br i1 %39, label %40, label %51

40:                                               ; preds = %37
  br label %41

41:                                               ; preds = %40
  br i1 true, label %42, label %44

42:                                               ; preds = %41
  %43 = call zeroext i1 @errstart_cold(i32 noundef 21, ptr noundef null) #7
  br i1 %43, label %46, label %48

44:                                               ; preds = %41
  %45 = call zeroext i1 @errstart(i32 noundef 21, ptr noundef null)
  br i1 %45, label %46, label %48

46:                                               ; preds = %44, %42
  %47 = call i32 (ptr, ...) @errmsg_internal(ptr noundef @.str.9)
  call void @errfinish(ptr noundef @.str.1, i32 noundef 1196, ptr noundef @__func__.add_nullingrels_if_needed)
  br label %48

48:                                               ; preds = %46, %44, %42
  unreachable

49:                                               ; No predecessors!
  br label %50

50:                                               ; preds = %49
  br label %51

51:                                               ; preds = %50, %37
  %52 = load ptr, ptr %5, align 8
  %53 = getelementptr inbounds nuw %struct.PlannerInfo, ptr %52, i32 0, i32 1
  %54 = load ptr, ptr %53, align 8
  %55 = load ptr, ptr %7, align 8
  %56 = getelementptr inbounds nuw %struct.Var, ptr %55, i32 0, i32 1
  %57 = load i32, ptr %56, align 4
  %58 = call ptr @get_relids_for_join(ptr noundef %54, i32 noundef %57)
  store ptr %58, ptr %10, align 8
  %59 = load ptr, ptr %10, align 8
  %60 = load ptr, ptr %7, align 8
  %61 = getelementptr inbounds nuw %struct.Var, ptr %60, i32 0, i32 1
  %62 = load i32, ptr %61, align 4
  %63 = call ptr @bms_del_member(ptr noundef %59, i32 noundef %62)
  store ptr %63, ptr %10, align 8
  br label %64

64:                                               ; preds = %51, %27
  %65 = load ptr, ptr %5, align 8
  %66 = load ptr, ptr %6, align 8
  %67 = load ptr, ptr %10, align 8
  %68 = call ptr @make_placeholder_expr(ptr noundef %65, ptr noundef %66, ptr noundef %67)
  store ptr %68, ptr %8, align 8
  %69 = load i32, ptr %9, align 4
  %70 = load ptr, ptr %8, align 8
  %71 = getelementptr inbounds nuw %struct.PlaceHolderVar, ptr %70, i32 0, i32 5
  store i32 %69, ptr %71, align 4
  %72 = load ptr, ptr %7, align 8
  %73 = getelementptr inbounds nuw %struct.Var, ptr %72, i32 0, i32 6
  %74 = load ptr, ptr %73, align 8
  %75 = call ptr @bms_copy(ptr noundef %74)
  %76 = load ptr, ptr %8, align 8
  %77 = getelementptr inbounds nuw %struct.PlaceHolderVar, ptr %76, i32 0, i32 3
  store ptr %75, ptr %77, align 8
  %78 = load ptr, ptr %8, align 8
  store ptr %78, ptr %6, align 8
  call void @llvm.lifetime.end.p0(i64 8, ptr %10) #6
  call void @llvm.lifetime.end.p0(i64 4, ptr %9) #6
  call void @llvm.lifetime.end.p0(i64 8, ptr %8) #6
  br label %89

79:                                               ; preds = %24
  br label %80

80:                                               ; preds = %79
  br i1 true, label %81, label %83

81:                                               ; preds = %80
  %82 = call zeroext i1 @errstart_cold(i32 noundef 21, ptr noundef null) #7
  br i1 %82, label %85, label %87

83:                                               ; preds = %80
  %84 = call zeroext i1 @errstart(i32 noundef 21, ptr noundef null)
  br i1 %84, label %85, label %87

85:                                               ; preds = %83, %81
  %86 = call i32 (ptr, ...) @errmsg_internal(ptr noundef @.str.9)
  call void @errfinish(ptr noundef @.str.1, i32 noundef 1211, ptr noundef @__func__.add_nullingrels_if_needed)
  br label %87

87:                                               ; preds = %85, %83, %81
  unreachable

88:                                               ; No predecessors!
  br label %89

89:                                               ; preds = %88, %64
  br label %90

90:                                               ; preds = %89, %21
  %91 = load ptr, ptr %6, align 8
  store ptr %91, ptr %4, align 8
  br label %92

92:                                               ; preds = %90, %15
  %93 = load ptr, ptr %4, align 8
  ret ptr %93
}