; Function Attrs: nounwind uwtable
define internal fastcc ptr @add_nullingrels_if_needed(ptr noundef %0, ptr noundef %1, ptr noundef nonnull readonly captures(none) %2) unnamed_addr #0 {
  %4 = alloca %struct.pull_varnos_context, align 8
  %5 = getelementptr inbounds nuw i8, ptr %2, i64 24
  %6 = load ptr, ptr %5, align 8
  %7 = icmp eq ptr %6, null
  br i1 %7, label %41, label %8

8:                                                ; preds = %3
  %9 = tail call fastcc zeroext i1 @is_standard_join_alias_expression(ptr noundef %1, ptr noundef %2)
  br i1 %9, label %10, label %11

10:                                               ; preds = %8
  tail call fastcc void @adjust_standard_join_alias_expression(ptr noundef %1, ptr noundef %2)
  br label %41

11:                                               ; preds = %8
  %.not = icmp eq ptr %0, null
  br i1 %.not, label %38, label %12

12:                                               ; preds = %11
  %13 = getelementptr inbounds nuw i8, ptr %2, i64 32
  %14 = load i32, ptr %13, align 8
  call void @llvm.lifetime.start.p0(i64 24, ptr nonnull %4) #6
  store ptr null, ptr %4, align 8
  %15 = getelementptr inbounds nuw i8, ptr %4, i64 8
  store ptr %0, ptr %15, align 8
  %16 = getelementptr inbounds nuw i8, ptr %4, i64 16
  store i32 %14, ptr %16, align 8
  %17 = call zeroext i1 @query_or_expression_tree_walker_impl(ptr noundef %1, ptr noundef nonnull @pull_varnos_walker, ptr noundef nonnull %4, i32 noundef 0) #6
  %18 = load ptr, ptr %4, align 8
  call void @llvm.lifetime.end.p0(i64 24, ptr nonnull %4) #6
  %19 = icmp eq ptr %18, null
  br i1 %19, label %20, label %32

20:                                               ; preds = %12
  %.not30 = icmp eq i32 %14, 0
  br i1 %.not30, label %24, label %21

21:                                               ; preds = %20
  %22 = call zeroext i1 @errstart_cold(i32 noundef 21, ptr noundef null) #7
  call void @llvm.assume(i1 %22)
  %23 = call i32 (ptr, ...) @errmsg_internal(ptr noundef nonnull @.str.9) #6
  call void @errfinish(ptr noundef nonnull @.str.1, i32 noundef 1196, ptr noundef nonnull @__func__.add_nullingrels_if_needed) #6
  unreachable

24:                                               ; preds = %20
  %25 = getelementptr inbounds nuw i8, ptr %0, i64 8
  %26 = load ptr, ptr %25, align 8
  %27 = getelementptr inbounds nuw i8, ptr %2, i64 4
  %28 = load i32, ptr %27, align 4
  %29 = call ptr @get_relids_for_join(ptr noundef %26, i32 noundef %28) #6
  %30 = load i32, ptr %27, align 4
  %31 = call ptr @bms_del_member(ptr noundef %29, i32 noundef %30) #6
  br label %32

32:                                               ; preds = %24, %12
  %.0 = phi ptr [ %31, %24 ], [ %18, %12 ]
  %33 = call ptr @make_placeholder_expr(ptr noundef nonnull %0, ptr noundef %1, ptr noundef %.0) #6
  %34 = getelementptr inbounds nuw i8, ptr %33, i64 36
  store i32 %14, ptr %34, align 4
  %35 = load ptr, ptr %5, align 8
  %36 = call ptr @bms_copy(ptr noundef %35) #6
  %37 = getelementptr inbounds nuw i8, ptr %33, i64 24
  store ptr %36, ptr %37, align 8
  br label %41

38:                                               ; preds = %11
  %39 = tail call zeroext i1 @errstart_cold(i32 noundef 21, ptr noundef null) #7
  tail call void @llvm.assume(i1 %39)
  %40 = tail call i32 (ptr, ...) @errmsg_internal(ptr noundef nonnull @.str.9) #6
  tail call void @errfinish(ptr noundef nonnull @.str.1, i32 noundef 1211, ptr noundef nonnull @__func__.add_nullingrels_if_needed) #6
  unreachable

41:                                               ; preds = %10, %32, %3
  %.026 = phi ptr [ %1, %3 ], [ %1, %10 ], [ %33, %32 ]
  ret ptr %.026
}